target datalayout = "e-m:e-p270:32:32-p271:32:32-p272:64:64-i64:64-i128:128-f80:128-n8:16:32:64-S128"
target triple = "x86_64-pc-linux-gnu"

; Function Attrs: nounwind uwtable
define dso_local i32 @luaL_getmetafield(ptr noundef %0, i32 noundef %1, ptr noundef %2) #0 {
  %4 = alloca i32, align 4
  %5 = alloca ptr, align 8
  %6 = alloca i32, align 4
  %7 = alloca ptr, align 8
  store ptr %0, ptr %5, align 8, !tbaa !4
  store i32 %1, ptr %6, align 4, !tbaa !9
  store ptr %2, ptr %7, align 8, !tbaa !11
  %8 = load ptr, ptr %5, align 8, !tbaa !4
  %9 = load i32, ptr %6, align 4, !tbaa !9
  %10 = call i32 @lua_getmetatable(ptr noundef %8, i32 noundef %9)
  %11 = icmp ne i32 %10, 0
  br i1 %11, label %13, label %12

12:                                               ; preds = %3
  store i32 0, ptr %4, align 4
  br label %24

13:                                               ; preds = %3
  %14 = load ptr, ptr %5, align 8, !tbaa !4
  %15 = load ptr, ptr %7, align 8, !tbaa !11
  call void @lua_pushstring(ptr noundef %14, ptr noundef %15)
  %16 = load ptr, ptr %5, align 8, !tbaa !4
  call void @lua_rawget(ptr noundef %16, i32 noundef -2)
  %17 = load ptr, ptr %5, align 8, !tbaa !4
  %18 = call i32 @lua_type(ptr noundef %17, i32 noundef -1)
  %19 = icmp eq i32 %18, 0
  br i1 %19, label %20, label %22

20:                                               ; preds = %13
  %21 = load ptr, ptr %5, align 8, !tbaa !4
  call void @lua_settop(ptr noundef %21, i32 noundef -3)
  store i32 0, ptr %4, align 4
  br label %24

22:                                               ; preds = %13
  %23 = load ptr, ptr %5, align 8, !tbaa !4
  call void @lua_remove(ptr noundef %23, i32 noundef -2)
  store i32 1, ptr %4, align 4
  br label %24

24:                                               ; preds = %22, %20, %12
  %25 = load i32, ptr %4, align 4
  ret i32 %25
}