; Function Attrs: nounwind uwtable
define dso_local range(i32 0, 2) i32 @luaL_getmetafield(ptr noundef %0, i32 noundef %1, ptr noundef %2) local_unnamed_addr #0 {
  %4 = tail call i32 @lua_getmetatable(ptr noundef %0, i32 noundef %1) #17
  %.not = icmp eq i32 %4, 0
  br i1 %.not, label %10, label %5

5:                                                ; preds = %3
  tail call void @lua_pushstring(ptr noundef %0, ptr noundef %2) #17
  tail call void @lua_rawget(ptr noundef %0, i32 noundef -2) #17
  %6 = tail call i32 @lua_type(ptr noundef %0, i32 noundef -1) #17
  %7 = icmp eq i32 %6, 0
  br i1 %7, label %8, label %9

8:                                                ; preds = %5
  tail call void @lua_settop(ptr noundef %0, i32 noundef -3) #17
  br label %10

9:                                                ; preds = %5
  tail call void @lua_remove(ptr noundef %0, i32 noundef -2) #17
  br label %10

10:                                               ; preds = %3, %9, %8
  %.0 = phi i32 [ 0, %8 ], [ 1, %9 ], [ 0, %3 ]
  ret i32 %.0
}